	.arch armv6
	.eabi_attribute 27, 3
	.eabi_attribute 28, 1
	.fpu vfp
	.eabi_attribute 20, 1
	.eabi_attribute 21, 1
	.eabi_attribute 23, 3
	.eabi_attribute 24, 1
	.eabi_attribute 25, 1
	.eabi_attribute 26, 2
	.eabi_attribute 30, 2
	.eabi_attribute 34, 1
	.eabi_attribute 18, 4
	.file	"other_border.c"
	.text
.Ltext0:
	.cfi_sections	.debug_frame
	.align	2
	.type	create_box.constprop.1, %function
create_box.constprop.1:
.LFB15:
	.file 1 "other_border.c"
	.loc 1 93 0
	.cfi_startproc
	@ args = 0, pretend = 0, frame = 8
	@ frame_needed = 0, uses_anonymous_args = 0
.LVL0:
	stmfd	sp!, {r4, r5, r6, r7, r8, r9, sl, fp, lr}
.LCFI0:
	.cfi_def_cfa_offset 36
	.cfi_offset 4, -36
	.cfi_offset 5, -32
	.cfi_offset 6, -28
	.cfi_offset 7, -24
	.cfi_offset 8, -20
	.cfi_offset 9, -16
	.cfi_offset 10, -12
	.cfi_offset 11, -8
	.cfi_offset 14, -4
	mov	r4, r0
	.loc 1 98 0
	ldmia	r0, {r6, r7}
.LVL1:
	.loc 1 103 0
	ldr	r5, .L35
	.loc 1 93 0
	sub	sp, sp, #12
.LCFI1:
	.cfi_def_cfa_offset 48
	.loc 1 103 0
	mov	r1, r7
	ldr	r0, [r5, #0]
.LVL2:
	mov	r2, r6
	.loc 1 99 0
	ldr	sl, [r4, #12]
.LVL3:
	.loc 1 100 0
	ldr	r8, [r4, #8]
.LVL4:
	.loc 1 103 0
	bl	wmove
.LVL5:
	cmn	r0, #1
	beq	.L2
	ldr	r0, [r5, #0]
	ldr	r1, [r4, #32]
	bl	waddch
.LVL6:
.L2:
	.loc 1 104 0
	add	r9, r6, sl
	ldr	r0, [r5, #0]
	mov	r1, r7
	mov	r2, r9
	bl	wmove
.LVL7:
	cmn	r0, #1
	beq	.L3
	ldr	r3, .L35
	ldr	r1, [r4, #36]
	ldr	r0, [r3, #0]
	bl	waddch
.LVL8:
.L3:
	.loc 1 105 0
	add	fp, r7, r8
	ldr	r0, [r5, #0]
	mov	r1, fp
	mov	r2, r6
	bl	wmove
.LVL9:
	cmn	r0, #1
	beq	.L4
	ldr	r3, .L35
	ldr	r1, [r4, #40]
	ldr	r0, [r3, #0]
	bl	waddch
.LVL10:
.L4:
	.loc 1 106 0
	ldr	r0, [r5, #0]
	mov	r1, fp
	mov	r2, r9
	bl	wmove
.LVL11:
	cmn	r0, #1
	beq	.L5
	ldr	r3, .L35
	ldr	r1, [r4, #44]
	ldr	r0, [r3, #0]
	bl	waddch
.LVL12:
.L5:
	.loc 1 107 0
	add	r3, r6, #1
	mov	r2, r3
	ldr	r0, [r5, #0]
	mov	r1, r7
	str	r3, [sp, #4]
	bl	wmove
.LVL13:
	ldr	r3, [sp, #4]
	cmn	r0, #1
	beq	.L6
	ldr	r2, .L35
	ldr	r1, [r4, #24]
	ldr	r0, [r2, #0]
	sub	r2, sl, #1
	bl	whline
.LVL14:
	ldr	r3, [sp, #4]
.L6:
	.loc 1 108 0
	ldr	r0, [r5, #0]
	mov	r1, fp
	mov	r2, r3
	bl	wmove
.LVL15:
	cmn	r0, #1
	beq	.L7
	ldr	r3, .L35
	ldr	r1, [r4, #28]
	sub	r2, sl, #1
	ldr	r0, [r3, #0]
	bl	whline
.LVL16:
.L7:
	.loc 1 109 0
	add	r7, r7, #1
.LVL17:
	ldr	r0, [r5, #0]
	mov	r1, r7
	mov	r2, r6
	bl	wmove
.LVL18:
	cmn	r0, #1
	beq	.L8
	ldr	r3, .L35
	ldr	r1, [r4, #16]
	sub	r2, r8, #1
	ldr	r0, [r3, #0]
	bl	wvline
.LVL19:
.L8:
	.loc 1 110 0
	ldr	r0, [r5, #0]
	mov	r1, r7
	mov	r2, r9
	bl	wmove
.LVL20:
	cmn	r0, #1
	beq	.L9
	ldr	r3, .L35
	ldr	r1, [r4, #20]
	sub	r2, r8, #1
	ldr	r0, [r3, #0]
	bl	wvline
.LVL21:
.L9:
	.loc 1 118 0
	ldr	r0, [r5, #0]
	.loc 1 120 0
	add	sp, sp, #12
	ldmfd	sp!, {r4, r5, r6, r7, r8, r9, sl, fp, lr}
	.loc 1 118 0
	b	wrefresh
.LVL22:
.L36:
	.align	2
.L35:
	.word	stdscr
	.cfi_endproc
.LFE15:
	.size	create_box.constprop.1, .-create_box.constprop.1
	.section	.text.startup,"ax",%progbits
	.align	2
	.global	main
	.type	main, %function
main:
.LFB11:
	.loc 1 20 0
	.cfi_startproc
	@ args = 0, pretend = 0, frame = 48
	@ frame_needed = 0, uses_anonymous_args = 0
.LVL23:
	stmfd	sp!, {r4, r5, r6, r7, r8, r9, sl, fp, lr}
.LCFI2:
	.cfi_def_cfa_offset 36
	.cfi_offset 4, -36
	.cfi_offset 5, -32
	.cfi_offset 6, -28
	.cfi_offset 7, -24
	.cfi_offset 8, -20
	.cfi_offset 9, -16
	.cfi_offset 10, -12
	.cfi_offset 11, -8
	.cfi_offset 14, -4
	sub	sp, sp, #52
.LCFI3:
	.cfi_def_cfa_offset 88
	.loc 1 27 0
	ldr	r4, .L91
	.loc 1 23 0
	bl	initscr
.LVL24:
	.loc 1 24 0
	bl	start_color
.LVL25:
	.loc 1 25 0
	bl	cbreak
.LVL26:
	.loc 1 27 0
	mov	r1, #1
	ldr	r0, [r4, #0]
	bl	keypad
.LVL27:
	.loc 1 28 0
	bl	noecho
.LVL28:
	.loc 1 29 0
	mov	r1, #6
	mov	r2, #0
	mov	r0, #1
	bl	init_pair
.LVL29:
.LBB16:
.LBB17:
	.loc 1 72 0
	ldr	r2, .L91+4
	.loc 1 70 0
	mov	r7, #3
	.loc 1 79 0
	mov	r3, #43
	.loc 1 72 0
	ldr	r1, [r2, #0]
	.loc 1 73 0
	ldr	r2, .L91+8
	.loc 1 72 0
	sub	r1, r1, #3
	.loc 1 75 0
	mov	lr, #124
	.loc 1 73 0
	ldr	r2, [r2, #0]
	.loc 1 72 0
	add	r6, r1, r1, lsr #31
	.loc 1 73 0
	sub	r2, r2, #10
	.loc 1 72 0
	mov	r6, r6, asr #1
	.loc 1 73 0
	add	r5, r2, r2, lsr #31
	.loc 1 77 0
	mov	ip, #45
	.loc 1 73 0
	mov	r5, r5, asr #1
.LBE17:
.LBE16:
	.loc 1 35 0
	mov	r1, #256
	mov	r2, #0
.LBB20:
.LBB18:
	.loc 1 70 0
	str	r7, [sp, #8]
.LBE18:
.LBE20:
	.loc 1 35 0
	ldr	r0, [r4, #0]
.LBB21:
.LBB19:
	.loc 1 71 0
	mov	r7, #10
	.loc 1 75 0
	str	lr, [sp, #16]
	.loc 1 76 0
	str	lr, [sp, #20]
	.loc 1 77 0
	str	ip, [sp, #24]
	.loc 1 78 0
	str	ip, [sp, #28]
	.loc 1 79 0
	str	r3, [sp, #32]
	.loc 1 80 0
	str	r3, [sp, #36]
	.loc 1 81 0
	str	r3, [sp, #40]
	.loc 1 82 0
	str	r3, [sp, #44]
.LVL30:
	.loc 1 73 0
	stmia	sp, {r5, r6}
	.loc 1 71 0
	str	r7, [sp, #12]
.LBE19:
.LBE21:
	.loc 1 35 0
	bl	wattr_on
.LVL31:
	.loc 1 36 0
	ldr	r0, .L91+12
	bl	printw
.LVL32:
	.loc 1 37 0
	ldr	r0, [r4, #0]
	bl	wrefresh
.LVL33:
	.loc 1 38 0
	mov	r1, #256
	mov	r2, #0
	ldr	r0, [r4, #0]
	bl	wattr_off
.LVL34:
	.loc 1 40 0
	mov	r0, sp
	bl	create_box.constprop.1
.LVL35:
	.loc 1 41 0
	ldr	r8, .L91+16
.LBB22:
.LBB23:
	.loc 1 116 0
	mov	r6, r4
.L89:
.LBE23:
.LBE22:
	.loc 1 41 0 discriminator 1
	ldr	r0, [r4, #0]
	bl	wgetch
.LVL36:
	cmp	r0, r8
	beq	.L90
.L70:
	.loc 1 42 0
	sub	r0, r0, #256
.LVL37:
	sub	r0, r0, #2
.LVL38:
	cmp	r0, #3
	ldrls	pc, [pc, r0, asl #2]
	b	.L89
.L44:
	.word	.L40
	.word	.L41
	.word	.L42
	.word	.L43
.L43:
.LVL39:
.LBB25:
.LBB26:
	.loc 1 98 0
	ldr	r7, [sp, #4]
	.loc 1 114 0
	ldr	fp, [sp, #8]
	.loc 1 97 0
	ldr	r9, [sp, #0]
.LVL40:
	.loc 1 114 0
	add	fp, r7, fp
	cmp	r7, fp
	.loc 1 99 0
	ldr	sl, [sp, #12]
.LVL41:
	.loc 1 114 0
	bgt	.L52
	.loc 1 115 0
	add	sl, r9, sl
.LVL42:
.L53:
	cmp	r9, sl
	movle	r5, r9
	bgt	.L57
.LVL43:
.L55:
	.loc 1 116 0
	mov	r2, r5
	mov	r1, r7
	ldr	r0, [r4, #0]
	bl	wmove
.LVL44:
	.loc 1 115 0
	add	r5, r5, #1
	.loc 1 116 0
	mov	r1, #32
	cmn	r0, #1
	beq	.L54
	ldr	r0, [r6, #0]
	bl	waddch
.LVL45:
.L54:
	.loc 1 115 0
	cmp	r5, sl
	ble	.L55
.LVL46:
.L57:
	.loc 1 114 0
	add	r7, r7, #1
.LVL47:
	cmp	r7, fp
	ble	.L53
.L52:
	.loc 1 118 0
	ldr	r0, [r4, #0]
	bl	wrefresh
.LVL48:
.LBE26:
.LBE25:
	.loc 1 50 0
	ldr	r3, [sp, #0]
	.loc 1 51 0
	mov	r0, sp
	.loc 1 50 0
	add	r3, r3, #1
	str	r3, [sp, #0]
	.loc 1 51 0
	bl	create_box.constprop.1
.LVL49:
	.loc 1 41 0
	ldr	r0, [r4, #0]
	bl	wgetch
.LVL50:
	cmp	r0, r8
	bne	.L70
.LVL51:
.L90:
	.loc 1 65 0
	bl	endwin
.LVL52:
	.loc 1 67 0
	mov	r0, #0
	add	sp, sp, #52
	ldmfd	sp!, {r4, r5, r6, r7, r8, r9, sl, fp, pc}
.LVL53:
.L42:
.LBB27:
.LBB28:
	.loc 1 98 0
	ldr	r7, [sp, #4]
	.loc 1 114 0
	ldr	fp, [sp, #8]
	.loc 1 97 0
	ldr	r9, [sp, #0]
.LVL54:
	.loc 1 114 0
	add	fp, r7, fp
	cmp	r7, fp
	.loc 1 99 0
	ldr	sl, [sp, #12]
.LVL55:
	.loc 1 114 0
	bgt	.L45
	.loc 1 115 0
	add	sl, r9, sl
.LVL56:
.L46:
	cmp	r9, sl
	movle	r5, r9
	bgt	.L50
.LVL57:
.L48:
	.loc 1 116 0
	mov	r2, r5
	mov	r1, r7
	ldr	r0, [r4, #0]
	bl	wmove
.LVL58:
	.loc 1 115 0
	add	r5, r5, #1
	.loc 1 116 0
	mov	r1, #32
	cmn	r0, #1
	beq	.L47
	ldr	r0, [r6, #0]
	bl	waddch
.LVL59:
.L47:
	.loc 1 115 0
	cmp	r5, sl
	ble	.L48
.LVL60:
.L50:
	.loc 1 114 0
	add	r7, r7, #1
.LVL61:
	cmp	r7, fp
	ble	.L46
.L45:
	.loc 1 118 0
	ldr	r0, [r4, #0]
	bl	wrefresh
.LVL62:
.LBE28:
.LBE27:
	.loc 1 45 0
	ldr	r3, [sp, #0]
	.loc 1 46 0
	mov	r0, sp
	.loc 1 45 0
	sub	r3, r3, #1
	str	r3, [sp, #0]
	.loc 1 46 0
	bl	create_box.constprop.1
.LVL63:
	.loc 1 47 0
	b	.L89
.LVL64:
.L41:
.LBB29:
.LBB30:
	.loc 1 98 0
	ldr	r7, [sp, #4]
	.loc 1 114 0
	ldr	fp, [sp, #8]
	.loc 1 97 0
	ldr	r9, [sp, #0]
.LVL65:
	.loc 1 114 0
	add	fp, r7, fp
	cmp	r7, fp
	.loc 1 99 0
	ldr	sl, [sp, #12]
.LVL66:
	.loc 1 114 0
	bgt	.L58
	.loc 1 115 0
	add	sl, r9, sl
.LVL67:
.L59:
	cmp	r9, sl
	movle	r5, r9
	bgt	.L63
.LVL68:
.L61:
	.loc 1 116 0
	mov	r2, r5
	mov	r1, r7
	ldr	r0, [r4, #0]
	bl	wmove
.LVL69:
	.loc 1 115 0
	add	r5, r5, #1
	.loc 1 116 0
	mov	r1, #32
	cmn	r0, #1
	beq	.L60
	ldr	r0, [r6, #0]
	bl	waddch
.LVL70:
.L60:
	.loc 1 115 0
	cmp	sl, r5
	bge	.L61
.LVL71:
.L63:
	.loc 1 114 0
	add	r7, r7, #1
.LVL72:
	cmp	r7, fp
	ble	.L59
.L58:
	.loc 1 118 0
	ldr	r0, [r4, #0]
	bl	wrefresh
.LVL73:
.LBE30:
.LBE29:
	.loc 1 55 0
	ldr	r3, [sp, #4]
	.loc 1 56 0
	mov	r0, sp
	.loc 1 55 0
	sub	r3, r3, #1
	str	r3, [sp, #4]
	.loc 1 56 0
	bl	create_box.constprop.1
.LVL74:
	.loc 1 57 0
	b	.L89
.LVL75:
.L40:
.LBB31:
.LBB24:
	.loc 1 98 0
	ldr	r7, [sp, #4]
	.loc 1 114 0
	ldr	fp, [sp, #8]
	.loc 1 97 0
	ldr	r9, [sp, #0]
.LVL76:
	.loc 1 114 0
	add	fp, r7, fp
	cmp	r7, fp
	.loc 1 99 0
	ldr	sl, [sp, #12]
.LVL77:
	.loc 1 114 0
	bgt	.L64
	.loc 1 115 0
	add	sl, r9, sl
.LVL78:
.L65:
	cmp	r9, sl
	movle	r5, r9
	bgt	.L69
.LVL79:
.L67:
	.loc 1 116 0
	mov	r2, r5
	mov	r1, r7
	ldr	r0, [r4, #0]
	bl	wmove
.LVL80:
	.loc 1 115 0
	add	r5, r5, #1
	.loc 1 116 0
	mov	r1, #32
	cmn	r0, #1
	beq	.L66
	ldr	r0, [r6, #0]
	bl	waddch
.LVL81:
.L66:
	.loc 1 115 0
	cmp	sl, r5
	bge	.L67
.LVL82:
.L69:
	.loc 1 114 0
	add	r7, r7, #1
.LVL83:
	cmp	fp, r7
	bge	.L65
.L64:
	.loc 1 118 0
	ldr	r0, [r4, #0]
	bl	wrefresh
.LVL84:
.LBE24:
.LBE31:
	.loc 1 60 0
	ldr	r3, [sp, #4]
	.loc 1 61 0
	mov	r0, sp
	.loc 1 60 0
	add	r3, r3, #1
	str	r3, [sp, #4]
	.loc 1 61 0
	bl	create_box.constprop.1
.LVL85:
	.loc 1 62 0
	b	.L89
.L92:
	.align	2
.L91:
	.word	stdscr
	.word	LINES
	.word	COLS
	.word	.LC0
	.word	265
	.cfi_endproc
.LFE11:
	.size	main, .-main
	.text
	.align	2
	.global	init_win_params
	.type	init_win_params, %function
init_win_params:
.LFB12:
	.loc 1 69 0
	.cfi_startproc
	@ args = 0, pretend = 0, frame = 0
	@ frame_needed = 0, uses_anonymous_args = 0
	@ link register save eliminated.
.LVL86:
	.loc 1 72 0
	ldr	r3, .L94
	.loc 1 69 0
	stmfd	sp!, {r4, r5}
.LCFI4:
	.cfi_def_cfa_offset 8
	.cfi_offset 4, -8
	.cfi_offset 5, -4
	.loc 1 70 0
	mov	r5, #3
	.loc 1 72 0
	ldr	r2, [r3, #0]
	.loc 1 73 0
	ldr	r3, .L94+4
	.loc 1 72 0
	sub	r2, r2, #3
	.loc 1 75 0
	mov	r1, #124
	.loc 1 73 0
	ldr	r3, [r3, #0]
	.loc 1 72 0
	add	r4, r2, r2, lsr #31
	.loc 1 73 0
	sub	r3, r3, #10
	.loc 1 77 0
	mov	r2, #45
	.loc 1 73 0
	add	ip, r3, r3, lsr #31
	.loc 1 72 0
	mov	r4, r4, asr #1
	.loc 1 79 0
	mov	r3, #43
	.loc 1 73 0
	mov	ip, ip, asr #1
	.loc 1 70 0
	str	r5, [r0, #8]
	.loc 1 71 0
	mov	r5, #10
	str	r5, [r0, #12]
	.loc 1 72 0
	str	r4, [r0, #4]
	.loc 1 73 0
	str	ip, [r0, #0]
	.loc 1 75 0
	str	r1, [r0, #16]
	.loc 1 76 0
	str	r1, [r0, #20]
	.loc 1 77 0
	str	r2, [r0, #24]
	.loc 1 78 0
	str	r2, [r0, #28]
	.loc 1 79 0
	str	r3, [r0, #32]
	.loc 1 80 0
	str	r3, [r0, #36]
	.loc 1 81 0
	str	r3, [r0, #40]
	.loc 1 82 0
	str	r3, [r0, #44]
	.loc 1 84 0
	ldmfd	sp!, {r4, r5}
	bx	lr
.L95:
	.align	2
.L94:
	.word	LINES
	.word	COLS
	.cfi_endproc
.LFE12:
	.size	init_win_params, .-init_win_params
	.align	2
	.global	print_win_params
	.type	print_win_params, %function
print_win_params:
.LFB13:
	.loc 1 86 0
	.cfi_startproc
	@ args = 0, pretend = 0, frame = 0
	@ frame_needed = 0, uses_anonymous_args = 0
	@ link register save eliminated.
.LVL87:
	bx	lr
	.cfi_endproc
.LFE13:
	.size	print_win_params, .-print_win_params
	.align	2
	.global	create_box
	.type	create_box, %function
create_box:
.LFB14:
	.loc 1 94 0
	.cfi_startproc
	@ args = 0, pretend = 0, frame = 8
	@ frame_needed = 0, uses_anonymous_args = 0
.LVL88:
	.loc 1 102 0
	cmp	r1, #0
	.loc 1 94 0
	stmfd	sp!, {r4, r5, r6, r7, r8, r9, sl, fp, lr}
.LCFI5:
	.cfi_def_cfa_offset 36
	.cfi_offset 4, -36
	.cfi_offset 5, -32
	.cfi_offset 6, -28
	.cfi_offset 7, -24
	.cfi_offset 8, -20
	.cfi_offset 9, -16
	.cfi_offset 10, -12
	.cfi_offset 11, -8
	.cfi_offset 14, -4
	mov	r4, r0
	sub	sp, sp, #12
.LCFI6:
	.cfi_def_cfa_offset 48
	.loc 1 97 0
	ldr	sl, [r0, #0]
.LVL89:
	.loc 1 98 0
	ldr	r5, [r0, #4]
.LVL90:
	.loc 1 99 0
	ldr	r6, [r0, #12]
.LVL91:
	.loc 1 100 0
	ldr	r9, [r0, #8]
.LVL92:
	.loc 1 102 0
	bne	.L98
.LVL93:
	.loc 1 114 0 discriminator 1
	add	r9, r5, r9
.LVL94:
	ldr	r7, .L143
	cmp	r5, r9
	addle	r6, sl, r6
.LVL95:
	.loc 1 116 0 discriminator 1
	movle	r8, r7
	.loc 1 114 0 discriminator 1
	bgt	.L108
.LVL96:
.L100:
	.loc 1 115 0 discriminator 1
	cmp	sl, r6
	movle	r4, sl
	bgt	.L112
.LVL97:
.L110:
	.loc 1 116 0
	mov	r2, r4
	mov	r1, r5
	ldr	r0, [r7, #0]
	bl	wmove
.LVL98:
	.loc 1 115 0
	add	r4, r4, #1
	.loc 1 116 0
	mov	r1, #32
	cmn	r0, #1
	beq	.L109
	.loc 1 116 0 is_stmt 0 discriminator 1
	ldr	r0, [r8, #0]
	bl	waddch
.LVL99:
.L109:
	.loc 1 115 0 is_stmt 1
	cmp	r6, r4
	bge	.L110
.LVL100:
.L112:
	.loc 1 114 0
	add	r5, r5, #1
.LVL101:
	cmp	r5, r9
	ble	.L100
.LVL102:
.L108:
	.loc 1 118 0
	ldr	r0, [r7, #0]
	.loc 1 120 0
	add	sp, sp, #12
	ldmfd	sp!, {r4, r5, r6, r7, r8, r9, sl, fp, lr}
	.loc 1 118 0
	b	wrefresh
.LVL103:
.L98:
	.loc 1 103 0
	ldr	r7, .L143
	mov	r1, r5
.LVL104:
	mov	r2, sl
	ldr	r0, [r7, #0]
.LVL105:
	bl	wmove
.LVL106:
	cmn	r0, #1
	beq	.L101
	.loc 1 103 0 is_stmt 0 discriminator 1
	ldr	r0, [r7, #0]
	ldr	r1, [r4, #32]
	bl	waddch
.LVL107:
.L101:
	.loc 1 104 0 is_stmt 1
	add	r8, sl, r6
	ldr	r0, [r7, #0]
	mov	r1, r5
	mov	r2, r8
	bl	wmove
.LVL108:
	cmn	r0, #1
	beq	.L102
	.loc 1 104 0 is_stmt 0 discriminator 1
	ldr	r3, .L143
	ldr	r1, [r4, #36]
	ldr	r0, [r3, #0]
	bl	waddch
.LVL109:
.L102:
	.loc 1 105 0 is_stmt 1
	add	fp, r5, r9
	ldr	r0, [r7, #0]
	mov	r1, fp
	mov	r2, sl
	bl	wmove
.LVL110:
	cmn	r0, #1
	beq	.L103
	.loc 1 105 0 is_stmt 0 discriminator 1
	ldr	r3, .L143
	ldr	r1, [r4, #40]
	ldr	r0, [r3, #0]
	bl	waddch
.LVL111:
.L103:
	.loc 1 106 0 is_stmt 1
	ldr	r0, [r7, #0]
	mov	r1, fp
	mov	r2, r8
	bl	wmove
.LVL112:
	cmn	r0, #1
	beq	.L104
	.loc 1 106 0 is_stmt 0 discriminator 1
	ldr	r3, .L143
	ldr	r1, [r4, #44]
	ldr	r0, [r3, #0]
	bl	waddch
.LVL113:
.L104:
	.loc 1 107 0 is_stmt 1
	add	r3, sl, #1
	mov	r2, r3
	ldr	r0, [r7, #0]
	mov	r1, r5
	str	r3, [sp, #4]
	bl	wmove
.LVL114:
	ldr	r3, [sp, #4]
	cmn	r0, #1
	beq	.L105
	.loc 1 107 0 is_stmt 0 discriminator 1
	ldr	r2, .L143
	ldr	r1, [r4, #24]
	ldr	r0, [r2, #0]
	sub	r2, r6, #1
	bl	whline
.LVL115:
	ldr	r3, [sp, #4]
.L105:
	.loc 1 108 0 is_stmt 1
	ldr	r0, [r7, #0]
	mov	r1, fp
	mov	r2, r3
	bl	wmove
.LVL116:
	cmn	r0, #1
	beq	.L106
	.loc 1 108 0 is_stmt 0 discriminator 1
	ldr	r3, .L143
	ldr	r1, [r4, #28]
	sub	r2, r6, #1
	ldr	r0, [r3, #0]
	bl	whline
.LVL117:
.L106:
	.loc 1 109 0 is_stmt 1
	add	r5, r5, #1
.LVL118:
	ldr	r0, [r7, #0]
	mov	r1, r5
	mov	r2, sl
	bl	wmove
.LVL119:
	cmn	r0, #1
	beq	.L107
	.loc 1 109 0 is_stmt 0 discriminator 1
	ldr	r3, .L143
	ldr	r1, [r4, #16]
	sub	r2, r9, #1
	ldr	r0, [r3, #0]
	bl	wvline
.LVL120:
.L107:
	.loc 1 110 0 is_stmt 1
	ldr	r0, [r7, #0]
	mov	r1, r5
	mov	r2, r8
	bl	wmove
.LVL121:
	cmn	r0, #1
	beq	.L108
	.loc 1 110 0 is_stmt 0 discriminator 1
	ldr	r3, .L143
	ldr	r1, [r4, #20]
	sub	r2, r9, #1
	ldr	r0, [r3, #0]
	bl	wvline
.LVL122:
	b	.L108
.L144:
	.align	2
.L143:
	.word	stdscr
	.cfi_endproc
.LFE14:
	.size	create_box, .-create_box
	.section	.rodata.str1.4,"aMS",%progbits,1
	.align	2
.LC0:
	.ascii	"Press F1 to exit\000"
	.text
.Letext0:
	.file 2 "/usr/include/ncurses.h"
	.file 3 "/usr/lib/gcc/arm-linux-gnueabihf/4.7/include/stddef.h"
	.file 4 "/usr/include/arm-linux-gnueabihf/bits/types.h"
	.file 5 "/usr/include/libio.h"
	.file 6 "/usr/include/stdio.h"
	.section	.note.GNU-stack,"",%progbits
